target datalayout = "e-m:e-p270:32:32-p271:32:32-p272:64:64-i64:64-i128:128-f80:128-n8:16:32:64-S128"
target triple = "x86_64-unknown-linux-gnu"

%"class.cvc5::internal::decision::JustifyInfo" = type { %"class.cvc5::context::CDO", %"class.cvc5::context::CDO.0", %"class.cvc5::context::CDO.1" }
%"class.cvc5::context::CDO" = type { %"class.cvc5::context::ContextObj", %"class.cvc5::internal::NodeTemplate" }
%"class.cvc5::context::ContextObj" = type { ptr, ptr, ptr, ptr, ptr }
%"class.cvc5::internal::NodeTemplate" = type { ptr }
%"class.cvc5::context::CDO.0" = type <{ %"class.cvc5::context::ContextObj", i32, [4 x i8] }>
%"class.cvc5::context::CDO.1" = type { %"class.cvc5::context::ContextObj", i64 }
%"struct.std::pair" = type <{ %"class.cvc5::internal::NodeTemplate", i32, [4 x i8] }>

; Function Attrs: mustprogress nounwind uwtable
define linkonce_odr hidden void @_ZN4cvc58internal12NodeTemplateILb0EEC2ERKS2_(ptr noundef nonnull align 8 dereferenceable(8) %this, ptr noundef nonnull align 8 dereferenceable(8) %e) unnamed_addr #4 comdat align 2 {
entry:
  %this.addr = alloca ptr, align 8
  %e.addr = alloca ptr, align 8
  store ptr %this, ptr %this.addr, align 8
  store ptr %e, ptr %e.addr, align 8
  %this1 = load ptr, ptr %this.addr, align 8
  %0 = load ptr, ptr %e.addr, align 8
  %d_nv = getelementptr inbounds %"class.cvc5::internal::NodeTemplate", ptr %0, i32 0, i32 0
  %1 = load ptr, ptr %d_nv, align 8
  %d_nv2 = getelementptr inbounds %"class.cvc5::internal::NodeTemplate", ptr %this1, i32 0, i32 0
  store ptr %1, ptr %d_nv2, align 8
  ret void
}

; Function Attrs: mustprogress uwtable
define linkonce_odr hidden void @_ZNSt4pairIN4cvc58internal12NodeTemplateILb0EEENS1_4prop8SatValueEEC2IS3_S5_TnNSt9enable_ifIXaaclsr5_PCCPE18_ConstructiblePairIT_T0_EEclsr5_PCCPE26_ImplicitlyConvertiblePairIS9_SA_EEEbE4typeELb1EEERKS3_RKS5_(ptr noundef nonnull align 8 dereferenceable(12) %this, ptr noundef nonnull align 8 dereferenceable(8) %__a, ptr noundef nonnull align 4 dereferenceable(4) %__b) unnamed_addr #5 comdat align 2 {
entry:
  %this.addr = alloca ptr, align 8
  %__a.addr = alloca ptr, align 8
  %__b.addr = alloca ptr, align 8
  store ptr %this, ptr %this.addr, align 8
  store ptr %__a, ptr %__a.addr, align 8
  store ptr %__b, ptr %__b.addr, align 8
  %this1 = load ptr, ptr %this.addr, align 8
  %first = getelementptr inbounds %"struct.std::pair", ptr %this1, i32 0, i32 0
  %0 = load ptr, ptr %__a.addr, align 8
  call void @_ZN4cvc58internal12NodeTemplateILb0EEC2ERKS2_(ptr noundef nonnull align 8 dereferenceable(8) %first, ptr noundef nonnull align 8 dereferenceable(8) %0)
  %second = getelementptr inbounds %"struct.std::pair", ptr %this1, i32 0, i32 1
  %1 = load ptr, ptr %__b.addr, align 8
  %2 = load i32, ptr %1, align 4
  store i32 %2, ptr %second, align 8
  ret void
}

; Function Attrs: mustprogress nounwind uwtable
define linkonce_odr hidden noundef nonnull align 4 dereferenceable(4) ptr @_ZNK4cvc57context3CDOINS_8internal4prop8SatValueEE3getEv(ptr noundef nonnull align 8 dereferenceable(44) %this) #4 comdat align 2 {
entry:
  %this.addr = alloca ptr, align 8
  store ptr %this, ptr %this.addr, align 8
  %this1 = load ptr, ptr %this.addr, align 8
  %d_data = getelementptr inbounds %"class.cvc5::context::CDO.0", ptr %this1, i32 0, i32 1
  ret ptr %d_data
}

; Function Attrs: mustprogress nounwind uwtable
define linkonce_odr hidden noundef nonnull align 8 dereferenceable(8) ptr @_ZNK4cvc57context3CDOINS_8internal12NodeTemplateILb0EEEE3getEv(ptr noundef nonnull align 8 dereferenceable(48) %this) #4 comdat align 2 {
entry:
  %this.addr = alloca ptr, align 8
  store ptr %this, ptr %this.addr, align 8
  %this1 = load ptr, ptr %this.addr, align 8
  %d_data = getelementptr inbounds %"class.cvc5::context::CDO", ptr %this1, i32 0, i32 1
  ret ptr %d_data
}

; Function Attrs: mustprogress uwtable
define hidden void @_ZNK4cvc58internal8decision11JustifyInfo7getNodeEv(ptr noalias sret(%"struct.std::pair") align 8 %agg.result, ptr noundef nonnull align 8 dereferenceable(144) %this) #5 align 2 {
entry:
  %result.ptr = alloca ptr, align 8
  %this.addr = alloca ptr, align 8
  store ptr %agg.result, ptr %result.ptr, align 8
  store ptr %this, ptr %this.addr, align 8
  %this1 = load ptr, ptr %this.addr, align 8
  %d_node = getelementptr inbounds %"class.cvc5::internal::decision::JustifyInfo", ptr %this1, i32 0, i32 0
  %call = call noundef nonnull align 8 dereferenceable(8) ptr @_ZNK4cvc57context3CDOINS_8internal12NodeTemplateILb0EEEE3getEv(ptr noundef nonnull align 8 dereferenceable(48) %d_node)
  %d_desiredVal = getelementptr inbounds %"class.cvc5::internal::decision::JustifyInfo", ptr %this1, i32 0, i32 1
  %call2 = call noundef nonnull align 4 dereferenceable(4) ptr @_ZNK4cvc57context3CDOINS_8internal4prop8SatValueEE3getEv(ptr noundef nonnull align 8 dereferenceable(44) %d_desiredVal)
  call void @_ZNSt4pairIN4cvc58internal12NodeTemplateILb0EEENS1_4prop8SatValueEEC2IS3_S5_TnNSt9enable_ifIXaaclsr5_PCCPE18_ConstructiblePairIT_T0_EEclsr5_PCCPE26_ImplicitlyConvertiblePairIS9_SA_EEEbE4typeELb1EEERKS3_RKS5_(ptr noundef nonnull align 8 dereferenceable(12) %agg.result, ptr noundef nonnull align 8 dereferenceable(8) %call, ptr noundef nonnull align 4 dereferenceable(4) %call2)
  ret void
}