; Function Attrs: mustprogress nofree norecurse nosync nounwind willreturn memory(argmem: readwrite) uwtable
define hidden void @_ZNK4cvc58internal8decision11JustifyInfo7getNodeEv(ptr noalias nocapture writeonly sret(%"struct.std::pair") align 8 %agg.result, ptr nocapture noundef nonnull readonly align 8 dereferenceable(144) %this) local_unnamed_addr #5 align 2 {
entry:
  %d_data.i = getelementptr inbounds i8, ptr %this, i64 40
  %d_data.i1 = getelementptr inbounds i8, ptr %this, i64 88
  %0 = load ptr, ptr %d_data.i, align 8
  store ptr %0, ptr %agg.result, align 8
  %second.i = getelementptr inbounds i8, ptr %agg.result, i64 8
  %1 = load i32, ptr %d_data.i1, align 8
  store i32 %1, ptr %second.i, align 8
  ret void
}